target datalayout = "e-m:e-p270:32:32-p271:32:32-p272:64:64-i64:64-i128:128-f80:128-n8:16:32:64-S128"
target triple = "x86_64-pc-linux-gnu"

%struct.evp_pkey_st = type { i32, i32, ptr, ptr, ptr, %union.legacy_pkey_st, %union.legacy_pkey_st, %struct.CRYPTO_REF_COUNT, ptr, ptr, i32, i8, %struct.crypto_ex_data_st, ptr, ptr, i64, ptr, i64, %struct.anon }
%union.legacy_pkey_st = type { ptr }
%struct.CRYPTO_REF_COUNT = type { i32 }
%struct.crypto_ex_data_st = type { ptr, ptr }
%struct.anon = type { i32, i32, i32 }
%struct.evp_pkey_asn1_method_st = type { i32, i32, i64, ptr, ptr, ptr, ptr, ptr, ptr, ptr, ptr, ptr, ptr, ptr, ptr, ptr, ptr, ptr, ptr, ptr, ptr, ptr, ptr, ptr, ptr, ptr, ptr, ptr, ptr, ptr, ptr, ptr, ptr, ptr, ptr, ptr, ptr, ptr, ptr, ptr, ptr }

@.str = private unnamed_addr constant [30 x i8] c"../openssl/crypto/evp/p_lib.c\00", align 1
@__func__.pkey_set_type = private unnamed_addr constant [14 x i8] c"pkey_set_type\00", align 1

; Function Attrs: nounwind uwtable
define internal i32 @pkey_set_type(ptr noundef %0, ptr noundef %1, i32 noundef %2, ptr noundef %3, i32 noundef %4, ptr noundef %5) #0 {
  %7 = alloca i32, align 4
  %8 = alloca ptr, align 8
  %9 = alloca ptr, align 8
  %10 = alloca i32, align 4
  %11 = alloca ptr, align 8
  %12 = alloca i32, align 4
  %13 = alloca ptr, align 8
  %14 = alloca ptr, align 8
  %15 = alloca ptr, align 8
  %16 = alloca i32, align 4
  %17 = alloca i32, align 4
  %18 = alloca i32, align 4
  store ptr %0, ptr %8, align 8, !tbaa !3
  store ptr %1, ptr %9, align 8, !tbaa !69
  store i32 %2, ptr %10, align 4, !tbaa !8
  store ptr %3, ptr %11, align 8, !tbaa !39
  store i32 %4, ptr %12, align 4, !tbaa !8
  store ptr %5, ptr %13, align 8, !tbaa !34
  call void @llvm.lifetime.start.p0(i64 8, ptr %14) #8
  store ptr null, ptr %14, align 8, !tbaa !70
  call void @llvm.lifetime.start.p0(i64 8, ptr %15) #8
  %19 = load ptr, ptr %9, align 8, !tbaa !69
  %20 = icmp eq ptr %19, null
  br i1 %20, label %21, label %22

21:                                               ; preds = %6
  br label %23

22:                                               ; preds = %6
  br label %23

23:                                               ; preds = %22, %21
  %24 = phi ptr [ %9, %21 ], [ null, %22 ]
  store ptr %24, ptr %15, align 8, !tbaa !89
  %25 = load i32, ptr %10, align 4, !tbaa !8
  %26 = icmp eq i32 %25, 0
  br i1 %26, label %30, label %27

27:                                               ; preds = %23
  %28 = load ptr, ptr %13, align 8, !tbaa !34
  %29 = icmp eq ptr %28, null
  br label %30

30:                                               ; preds = %27, %23
  %31 = phi i1 [ true, %23 ], [ %29, %27 ]
  %32 = zext i1 %31 to i32
  %33 = icmp ne i32 %32, 0
  %34 = xor i1 %33, true
  %35 = xor i1 %34, true
  %36 = zext i1 %35 to i32
  %37 = sext i32 %36 to i64
  %38 = call i64 @llvm.expect.i64(i64 %37, i64 1)
  %39 = icmp ne i64 %38, 0
  br i1 %39, label %40, label %56

40:                                               ; preds = %30
  %41 = load ptr, ptr %9, align 8, !tbaa !69
  %42 = icmp eq ptr %41, null
  br i1 %42, label %46, label %43

43:                                               ; preds = %40
  %44 = load ptr, ptr %13, align 8, !tbaa !34
  %45 = icmp eq ptr %44, null
  br label %46

46:                                               ; preds = %43, %40
  %47 = phi i1 [ true, %40 ], [ %45, %43 ]
  %48 = zext i1 %47 to i32
  %49 = icmp ne i32 %48, 0
  %50 = xor i1 %49, true
  %51 = xor i1 %50, true
  %52 = zext i1 %51 to i32
  %53 = sext i32 %52 to i64
  %54 = call i64 @llvm.expect.i64(i64 %53, i64 1)
  %55 = icmp ne i64 %54, 0
  br i1 %55, label %57, label %56

56:                                               ; preds = %46, %30
  call void @ERR_new()
  call void @ERR_set_debug(ptr noundef @.str, i32 noundef 1552, ptr noundef @__func__.pkey_set_type)
  call void (i32, i32, ptr, ...) @ERR_set_error(i32 noundef 6, i32 noundef 786691, ptr noundef null)
  store i32 0, ptr %7, align 4
  store i32 1, ptr %16, align 4
  br label %225

57:                                               ; preds = %46
  %58 = load ptr, ptr %8, align 8, !tbaa !3
  %59 = icmp ne ptr %58, null
  br i1 %59, label %60, label %118

60:                                               ; preds = %57
  call void @llvm.lifetime.start.p0(i64 4, ptr %17) #8
  store i32 0, ptr %17, align 4, !tbaa !8
  %61 = load i32, ptr %17, align 4, !tbaa !8
  %62 = icmp ne i32 %61, 0
  br i1 %62, label %68, label %63

63:                                               ; preds = %60
  %64 = load ptr, ptr %8, align 8, !tbaa !3
  %65 = getelementptr inbounds nuw %struct.evp_pkey_st, ptr %64, i32 0, i32 5
  %66 = load ptr, ptr %65, align 8, !tbaa !38
  %67 = icmp ne ptr %66, null
  br label %68

68:                                               ; preds = %63, %60
  %69 = phi i1 [ true, %60 ], [ %67, %63 ]
  %70 = zext i1 %69 to i32
  store i32 %70, ptr %17, align 4, !tbaa !8
  %71 = load i32, ptr %17, align 4, !tbaa !8
  %72 = icmp ne i32 %71, 0
  br i1 %72, label %78, label %73

73:                                               ; preds = %68
  %74 = load ptr, ptr %8, align 8, !tbaa !3
  %75 = getelementptr inbounds nuw %struct.evp_pkey_st, ptr %74, i32 0, i32 14
  %76 = load ptr, ptr %75, align 8, !tbaa !33
  %77 = icmp ne ptr %76, null
  br label %78

78:                                               ; preds = %73, %68
  %79 = phi i1 [ true, %68 ], [ %77, %73 ]
  %80 = zext i1 %79 to i32
  store i32 %80, ptr %17, align 4, !tbaa !8
  %81 = load i32, ptr %17, align 4, !tbaa !8
  %82 = icmp ne i32 %81, 0
  br i1 %82, label %83, label %85

83:                                               ; preds = %78
  %84 = load ptr, ptr %8, align 8, !tbaa !3
  call void @evp_pkey_free_it(ptr noundef %84)
  br label %85

85:                                               ; preds = %83, %78
  %86 = load ptr, ptr %8, align 8, !tbaa !3
  %87 = getelementptr inbounds nuw %struct.evp_pkey_st, ptr %86, i32 0, i32 0
  %88 = load i32, ptr %87, align 8, !tbaa !29
  %89 = icmp ne i32 %88, 0
  br i1 %89, label %90, label %102

90:                                               ; preds = %85
  %91 = load i32, ptr %10, align 4, !tbaa !8
  %92 = load ptr, ptr %8, align 8, !tbaa !3
  %93 = getelementptr inbounds nuw %struct.evp_pkey_st, ptr %92, i32 0, i32 1
  %94 = load i32, ptr %93, align 4, !tbaa !91
  %95 = icmp eq i32 %91, %94
  br i1 %95, label %96, label %102

96:                                               ; preds = %90
  %97 = load ptr, ptr %8, align 8, !tbaa !3
  %98 = getelementptr inbounds nuw %struct.evp_pkey_st, ptr %97, i32 0, i32 2
  %99 = load ptr, ptr %98, align 8, !tbaa !23
  %100 = icmp ne ptr %99, null
  br i1 %100, label %101, label %102

101:                                              ; preds = %96
  store i32 1, ptr %7, align 4
  store i32 1, ptr %16, align 4
  br label %115

102:                                              ; preds = %96, %90, %85
  %103 = load ptr, ptr %8, align 8, !tbaa !3
  %104 = getelementptr inbounds nuw %struct.evp_pkey_st, ptr %103, i32 0, i32 3
  %105 = load ptr, ptr %104, align 8, !tbaa !92
  %106 = call i32 @ENGINE_finish(ptr noundef %105)
  %107 = load ptr, ptr %8, align 8, !tbaa !3
  %108 = getelementptr inbounds nuw %struct.evp_pkey_st, ptr %107, i32 0, i32 3
  store ptr null, ptr %108, align 8, !tbaa !92
  %109 = load ptr, ptr %8, align 8, !tbaa !3
  %110 = getelementptr inbounds nuw %struct.evp_pkey_st, ptr %109, i32 0, i32 4
  %111 = load ptr, ptr %110, align 8, !tbaa !93
  %112 = call i32 @ENGINE_finish(ptr noundef %111)
  %113 = load ptr, ptr %8, align 8, !tbaa !3
  %114 = getelementptr inbounds nuw %struct.evp_pkey_st, ptr %113, i32 0, i32 4
  store ptr null, ptr %114, align 8, !tbaa !93
  store i32 0, ptr %16, align 4
  br label %115

115:                                              ; preds = %102, %101
  call void @llvm.lifetime.end.p0(i64 4, ptr %17) #8
  %116 = load i32, ptr %16, align 4
  switch i32 %116, label %225 [
    i32 0, label %117
  ]

117:                                              ; preds = %115
  br label %118

118:                                              ; preds = %117, %57
  %119 = load ptr, ptr %11, align 8, !tbaa !39
  %120 = icmp ne ptr %119, null
  br i1 %120, label %121, label %126

121:                                              ; preds = %118
  %122 = load ptr, ptr %15, align 8, !tbaa !89
  %123 = load ptr, ptr %11, align 8, !tbaa !39
  %124 = load i32, ptr %12, align 4, !tbaa !8
  %125 = call ptr @EVP_PKEY_asn1_find_str(ptr noundef %122, ptr noundef %123, i32 noundef %124)
  store ptr %125, ptr %14, align 8, !tbaa !70
  br label %134

126:                                              ; preds = %118
  %127 = load i32, ptr %10, align 4, !tbaa !8
  %128 = icmp ne i32 %127, 0
  br i1 %128, label %129, label %133

129:                                              ; preds = %126
  %130 = load ptr, ptr %15, align 8, !tbaa !89
  %131 = load i32, ptr %10, align 4, !tbaa !8
  %132 = call ptr @EVP_PKEY_asn1_find(ptr noundef %130, i32 noundef %131)
  store ptr %132, ptr %14, align 8, !tbaa !70
  br label %133

133:                                              ; preds = %129, %126
  br label %134

134:                                              ; preds = %133, %121
  %135 = load ptr, ptr %8, align 8, !tbaa !3
  %136 = icmp eq ptr %135, null
  br i1 %136, label %137, label %143

137:                                              ; preds = %134
  %138 = load ptr, ptr %15, align 8, !tbaa !89
  %139 = icmp ne ptr %138, null
  br i1 %139, label %140, label %143

140:                                              ; preds = %137
  %141 = load ptr, ptr %9, align 8, !tbaa !69
  %142 = call i32 @ENGINE_finish(ptr noundef %141)
  br label %143

143:                                              ; preds = %140, %137, %134
  call void @llvm.lifetime.start.p0(i64 4, ptr %18) #8
  store i32 1, ptr %18, align 4, !tbaa !8
  %144 = load i32, ptr %18, align 4, !tbaa !8
  %145 = icmp ne i32 %144, 0
  br i1 %145, label %146, label %149

146:                                              ; preds = %143
  %147 = load ptr, ptr %14, align 8, !tbaa !70
  %148 = icmp eq ptr %147, null
  br label %149

149:                                              ; preds = %146, %143
  %150 = phi i1 [ false, %143 ], [ %148, %146 ]
  %151 = zext i1 %150 to i32
  store i32 %151, ptr %18, align 4, !tbaa !8
  %152 = load i32, ptr %18, align 4, !tbaa !8
  %153 = icmp ne i32 %152, 0
  br i1 %153, label %154, label %157

154:                                              ; preds = %149
  %155 = load ptr, ptr %13, align 8, !tbaa !34
  %156 = icmp eq ptr %155, null
  br label %157

157:                                              ; preds = %154, %149
  %158 = phi i1 [ false, %149 ], [ %156, %154 ]
  %159 = zext i1 %158 to i32
  store i32 %159, ptr %18, align 4, !tbaa !8
  %160 = load i32, ptr %18, align 4, !tbaa !8
  %161 = icmp ne i32 %160, 0
  br i1 %161, label %162, label %163

162:                                              ; preds = %157
  call void @ERR_new()
  call void @ERR_set_debug(ptr noundef @.str, i32 noundef 1603, ptr noundef @__func__.pkey_set_type)
  call void (i32, i32, ptr, ...) @ERR_set_error(i32 noundef 6, i32 noundef 156, ptr noundef null)
  store i32 0, ptr %7, align 4
  store i32 1, ptr %16, align 4
  br label %164

163:                                              ; preds = %157
  store i32 0, ptr %16, align 4
  br label %164

164:                                              ; preds = %163, %162
  call void @llvm.lifetime.end.p0(i64 4, ptr %18) #8
  %165 = load i32, ptr %16, align 4
  switch i32 %165, label %225 [
    i32 0, label %166
  ]

166:                                              ; preds = %164
  %167 = load ptr, ptr %8, align 8, !tbaa !3
  %168 = icmp ne ptr %167, null
  br i1 %168, label %169, label %224

169:                                              ; preds = %166
  %170 = load ptr, ptr %13, align 8, !tbaa !34
  %171 = icmp ne ptr %170, null
  br i1 %171, label %172, label %177

172:                                              ; preds = %169
  %173 = load ptr, ptr %13, align 8, !tbaa !34
  %174 = call i32 @EVP_KEYMGMT_up_ref(ptr noundef %173)
  %175 = icmp ne i32 %174, 0
  br i1 %175, label %177, label %176

176:                                              ; preds = %172
  call void @ERR_new()
  call void @ERR_set_debug(ptr noundef @.str, i32 noundef 1609, ptr noundef @__func__.pkey_set_type)
  call void (i32, i32, ptr, ...) @ERR_set_error(i32 noundef 6, i32 noundef 786691, ptr noundef null)
  store i32 0, ptr %7, align 4
  store i32 1, ptr %16, align 4
  br label %225

177:                                              ; preds = %172, %169
  %178 = load ptr, ptr %13, align 8, !tbaa !34
  %179 = load ptr, ptr %8, align 8, !tbaa !3
  %180 = getelementptr inbounds nuw %struct.evp_pkey_st, ptr %179, i32 0, i32 13
  store ptr %178, ptr %180, align 8, !tbaa !32
  %181 = load i32, ptr %10, align 4, !tbaa !8
  %182 = load ptr, ptr %8, align 8, !tbaa !3
  %183 = getelementptr inbounds nuw %struct.evp_pkey_st, ptr %182, i32 0, i32 1
  store i32 %181, ptr %183, align 4, !tbaa !91
  %184 = load i32, ptr %10, align 4, !tbaa !8
  %185 = load ptr, ptr %8, align 8, !tbaa !3
  %186 = getelementptr inbounds nuw %struct.evp_pkey_st, ptr %185, i32 0, i32 0
  store i32 %184, ptr %186, align 8, !tbaa !29
  %187 = load ptr, ptr %13, align 8, !tbaa !34
  %188 = icmp eq ptr %187, null
  br i1 %188, label %189, label %193

189:                                              ; preds = %177
  %190 = load ptr, ptr %14, align 8, !tbaa !70
  %191 = load ptr, ptr %8, align 8, !tbaa !3
  %192 = getelementptr inbounds nuw %struct.evp_pkey_st, ptr %191, i32 0, i32 2
  store ptr %190, ptr %192, align 8, !tbaa !23
  br label %193

193:                                              ; preds = %189, %177
  %194 = load ptr, ptr %14, align 8, !tbaa !70
  %195 = icmp ne ptr %194, null
  br i1 %195, label %196, label %206

196:                                              ; preds = %193
  %197 = load i32, ptr %10, align 4, !tbaa !8
  %198 = icmp eq i32 %197, 0
  br i1 %198, label %199, label %205

199:                                              ; preds = %196
  %200 = load ptr, ptr %14, align 8, !tbaa !70
  %201 = getelementptr inbounds nuw %struct.evp_pkey_asn1_method_st, ptr %200, i32 0, i32 0
  %202 = load i32, ptr %201, align 8, !tbaa !94
  %203 = load ptr, ptr %8, align 8, !tbaa !3
  %204 = getelementptr inbounds nuw %struct.evp_pkey_st, ptr %203, i32 0, i32 0
  store i32 %202, ptr %204, align 8, !tbaa !29
  br label %205

205:                                              ; preds = %199, %196
  br label %209

206:                                              ; preds = %193
  %207 = load ptr, ptr %8, align 8, !tbaa !3
  %208 = getelementptr inbounds nuw %struct.evp_pkey_st, ptr %207, i32 0, i32 0
  store i32 -1, ptr %208, align 8, !tbaa !29
  br label %209

209:                                              ; preds = %206, %205
  %210 = load ptr, ptr %15, align 8, !tbaa !89
  %211 = icmp eq ptr %210, null
  br i1 %211, label %212, label %220

212:                                              ; preds = %209
  %213 = load ptr, ptr %9, align 8, !tbaa !69
  %214 = icmp ne ptr %213, null
  br i1 %214, label %215, label %220

215:                                              ; preds = %212
  %216 = load ptr, ptr %9, align 8, !tbaa !69
  %217 = call i32 @ENGINE_init(ptr noundef %216)
  %218 = icmp ne i32 %217, 0
  br i1 %218, label %220, label %219

219:                                              ; preds = %215
  call void @ERR_new()
  call void @ERR_set_debug(ptr noundef @.str, i32 noundef 1643, ptr noundef @__func__.pkey_set_type)
  call void (i32, i32, ptr, ...) @ERR_set_error(i32 noundef 6, i32 noundef 134, ptr noundef null)
  store i32 0, ptr %7, align 4
  store i32 1, ptr %16, align 4
  br label %225

220:                                              ; preds = %215, %212, %209
  %221 = load ptr, ptr %9, align 8, !tbaa !69
  %222 = load ptr, ptr %8, align 8, !tbaa !3
  %223 = getelementptr inbounds nuw %struct.evp_pkey_st, ptr %222, i32 0, i32 3
  store ptr %221, ptr %223, align 8, !tbaa !92
  br label %224

224:                                              ; preds = %220, %166
  store i32 1, ptr %7, align 4
  store i32 1, ptr %16, align 4
  br label %225

225:                                              ; preds = %224, %219, %176, %164, %115, %56
  call void @llvm.lifetime.end.p0(i64 8, ptr %15) #8
  call void @llvm.lifetime.end.p0(i64 8, ptr %14) #8
  %226 = load i32, ptr %7, align 4
  ret i32 %226
}