; Function Attrs: nounwind uwtable
define internal fastcc range(i32 0, 2) i32 @pkey_set_type(ptr noundef %0, ptr noundef %1, i32 noundef %2, ptr noundef %3, i32 noundef %4, ptr noundef %5) unnamed_addr #0 {
  %7 = alloca ptr, align 8
  store ptr %1, ptr %7, align 8, !tbaa !61
  %8 = icmp eq ptr %1, null
  %. = select i1 %8, ptr %7, ptr null
  %9 = icmp eq i32 %2, 0
  %10 = icmp eq ptr %5, null
  %11 = and i1 %8, %9
  %or.cond75 = or i1 %11, %10
  br i1 %or.cond75, label %13, label %12, !prof !76

12:                                               ; preds = %6
  tail call void @ERR_new() #12
  tail call void @ERR_set_debug(ptr noundef nonnull @.str, i32 noundef 1552, ptr noundef nonnull @__func__.pkey_set_type) #12
  tail call void (i32, i32, ptr, ...) @ERR_set_error(i32 noundef 6, i32 noundef 786691, ptr noundef null) #12
  br label %73

13:                                               ; preds = %6
  %.not = icmp eq ptr %0, null
  br i1 %.not, label %35, label %14

14:                                               ; preds = %13
  %15 = getelementptr inbounds nuw i8, ptr %0, i64 32
  %16 = load ptr, ptr %15, align 8, !tbaa !39
  %.not65 = icmp eq ptr %16, null
  br i1 %.not65, label %17, label %.critedge

17:                                               ; preds = %14
  %18 = getelementptr inbounds nuw i8, ptr %0, i64 104
  %19 = load ptr, ptr %18, align 8, !tbaa !33
  %.not82 = icmp eq ptr %19, null
  br i1 %.not82, label %20, label %.critedge

.critedge:                                        ; preds = %14, %17
  tail call fastcc void @evp_pkey_free_it(ptr noundef %0)
  br label %20

20:                                               ; preds = %.critedge, %17
  %21 = load i32, ptr %0, align 8, !tbaa !26
  %.not66 = icmp eq i32 %21, 0
  br i1 %.not66, label %.critedge77, label %22

22:                                               ; preds = %20
  %23 = getelementptr inbounds nuw i8, ptr %0, i64 4
  %24 = load i32, ptr %23, align 4, !tbaa !77
  %25 = icmp eq i32 %2, %24
  br i1 %25, label %26, label %.critedge77

26:                                               ; preds = %22
  %27 = getelementptr inbounds nuw i8, ptr %0, i64 8
  %28 = load ptr, ptr %27, align 8, !tbaa !20
  %.not67 = icmp eq ptr %28, null
  br i1 %.not67, label %.critedge77, label %73

.critedge77:                                      ; preds = %26, %22, %20
  %29 = getelementptr inbounds nuw i8, ptr %0, i64 16
  %30 = load ptr, ptr %29, align 8, !tbaa !78
  %31 = tail call i32 @ENGINE_finish(ptr noundef %30) #12
  store ptr null, ptr %29, align 8, !tbaa !78
  %32 = getelementptr inbounds nuw i8, ptr %0, i64 24
  %33 = load ptr, ptr %32, align 8, !tbaa !79
  %34 = tail call i32 @ENGINE_finish(ptr noundef %33) #12
  store ptr null, ptr %32, align 8, !tbaa !79
  br label %35

35:                                               ; preds = %.critedge77, %13
  %.not68 = icmp eq ptr %3, null
  br i1 %.not68, label %38, label %36

36:                                               ; preds = %35
  %37 = call ptr @EVP_PKEY_asn1_find_str(ptr noundef %., ptr noundef nonnull %3, i32 noundef %4) #12
  br label %41

38:                                               ; preds = %35
  br i1 %9, label %41, label %39

39:                                               ; preds = %38
  %40 = call ptr @EVP_PKEY_asn1_find(ptr noundef %., i32 noundef %2) #12
  br label %41

41:                                               ; preds = %38, %39, %36
  %.059 = phi ptr [ %37, %36 ], [ %40, %39 ], [ null, %38 ]
  %or.cond = and i1 %.not, %8
  br i1 %or.cond, label %42, label %45

42:                                               ; preds = %41
  %43 = load ptr, ptr %7, align 8, !tbaa !61
  %44 = call i32 @ENGINE_finish(ptr noundef %43) #12
  br label %45

45:                                               ; preds = %42, %41
  %46 = icmp eq ptr %.059, null
  %47 = and i1 %10, %46
  br i1 %47, label %.thread, label %48

.thread:                                          ; preds = %45
  call void @ERR_new() #12
  call void @ERR_set_debug(ptr noundef nonnull @.str, i32 noundef 1603, ptr noundef nonnull @__func__.pkey_set_type) #12
  call void (i32, i32, ptr, ...) @ERR_set_error(i32 noundef 6, i32 noundef 156, ptr noundef null) #12
  br label %73

48:                                               ; preds = %45
  br i1 %.not, label %73, label %49

49:                                               ; preds = %48
  br i1 %10, label %56, label %50

50:                                               ; preds = %49
  %51 = call i32 @EVP_KEYMGMT_up_ref(ptr noundef nonnull %5) #12
  %.not71 = icmp eq i32 %51, 0
  br i1 %.not71, label %52, label %53

52:                                               ; preds = %50
  call void @ERR_new() #12
  call void @ERR_set_debug(ptr noundef nonnull @.str, i32 noundef 1609, ptr noundef nonnull @__func__.pkey_set_type) #12
  call void (i32, i32, ptr, ...) @ERR_set_error(i32 noundef 6, i32 noundef 786691, ptr noundef null) #12
  br label %73

53:                                               ; preds = %50
  %54 = getelementptr inbounds nuw i8, ptr %0, i64 96
  store ptr %5, ptr %54, align 8, !tbaa !30
  %55 = getelementptr inbounds nuw i8, ptr %0, i64 4
  store i32 %2, ptr %55, align 4, !tbaa !77
  store i32 %2, ptr %0, align 8, !tbaa !26
  br label %60

56:                                               ; preds = %49
  %57 = getelementptr inbounds nuw i8, ptr %0, i64 96
  store ptr null, ptr %57, align 8, !tbaa !30
  %58 = getelementptr inbounds nuw i8, ptr %0, i64 4
  store i32 %2, ptr %58, align 4, !tbaa !77
  store i32 %2, ptr %0, align 8, !tbaa !26
  %59 = getelementptr inbounds nuw i8, ptr %0, i64 8
  store ptr %.059, ptr %59, align 8, !tbaa !20
  br label %60

60:                                               ; preds = %53, %56
  br i1 %46, label %.sink.split, label %61

61:                                               ; preds = %60
  br i1 %9, label %62, label %64

62:                                               ; preds = %61
  %63 = load i32, ptr %.059, align 8, !tbaa !80
  br label %.sink.split

.sink.split:                                      ; preds = %60, %62
  %.sink = phi i32 [ %63, %62 ], [ -1, %60 ]
  store i32 %.sink, ptr %0, align 8, !tbaa !26
  br label %64

64:                                               ; preds = %.sink.split, %61
  %65 = load ptr, ptr %7, align 8
  %66 = icmp eq ptr %65, null
  %or.cond4.not = select i1 %8, i1 true, i1 %66
  br i1 %or.cond4.not, label %70, label %67

67:                                               ; preds = %64
  %68 = call i32 @ENGINE_init(ptr noundef nonnull %65) #12
  %.not74 = icmp eq i32 %68, 0
  br i1 %.not74, label %69, label %._crit_edge

._crit_edge:                                      ; preds = %67
  %.pre = load ptr, ptr %7, align 8, !tbaa !61
  br label %70

69:                                               ; preds = %67
  call void @ERR_new() #12
  call void @ERR_set_debug(ptr noundef nonnull @.str, i32 noundef 1643, ptr noundef nonnull @__func__.pkey_set_type) #12
  call void (i32, i32, ptr, ...) @ERR_set_error(i32 noundef 6, i32 noundef 134, ptr noundef null) #12
  br label %73

70:                                               ; preds = %._crit_edge, %64
  %71 = phi ptr [ %.pre, %._crit_edge ], [ %65, %64 ]
  %72 = getelementptr inbounds nuw i8, ptr %0, i64 16
  store ptr %71, ptr %72, align 8, !tbaa !78
  br label %73

73:                                               ; preds = %.thread, %48, %70, %26, %69, %52, %12
  %.0 = phi i32 [ 0, %69 ], [ 0, %52 ], [ 1, %48 ], [ 0, %12 ], [ 1, %26 ], [ 1, %70 ], [ 0, %.thread ]
  ret i32 %.0
}